target datalayout = "e-m:e-p270:32:32-p271:32:32-p272:64:64-i64:64-i128:128-f80:128-n8:16:32:64-S128"
target triple = "x86_64-pc-linux-gnu"

%struct.Amap_Lib_t_ = type { ptr, ptr, ptr, ptr, ptr, ptr, ptr, ptr, ptr, i32, i32, i32, ptr, i32, i32, ptr, ptr, ptr, ptr, ptr, ptr, i32 }
%struct.Vec_Ptr_t_ = type { i32, i32, ptr }

; Function Attrs: nounwind uwtable
define internal i32 @Vec_PtrSize(ptr noundef %0) #0 {
  %2 = alloca ptr, align 8
  store ptr %0, ptr %2, align 8
  %3 = load ptr, ptr %2, align 8
  %4 = getelementptr inbounds %struct.Vec_Ptr_t_, ptr %3, i32 0, i32 1
  %5 = load i32, ptr %4, align 4
  ret i32 %5
}

; Function Attrs: nounwind uwtable
define internal ptr @Vec_PtrArray(ptr noundef %0) #0 {
  %2 = alloca ptr, align 8
  store ptr %0, ptr %2, align 8
  %3 = load ptr, ptr %2, align 8
  %4 = getelementptr inbounds %struct.Vec_Ptr_t_, ptr %3, i32 0, i32 2
  %5 = load ptr, ptr %4, align 8
  ret ptr %5
}

; Function Attrs: nounwind uwtable
define internal ptr @Vec_PtrDup(ptr noundef %0) #0 {
  %2 = alloca ptr, align 8
  %3 = alloca ptr, align 8
  store ptr %0, ptr %2, align 8
  %4 = call noalias ptr @malloc(i64 noundef 16) #9
  store ptr %4, ptr %3, align 8
  %5 = load ptr, ptr %2, align 8
  %6 = getelementptr inbounds %struct.Vec_Ptr_t_, ptr %5, i32 0, i32 1
  %7 = load i32, ptr %6, align 4
  %8 = load ptr, ptr %3, align 8
  %9 = getelementptr inbounds %struct.Vec_Ptr_t_, ptr %8, i32 0, i32 1
  store i32 %7, ptr %9, align 4
  %10 = load ptr, ptr %2, align 8
  %11 = getelementptr inbounds %struct.Vec_Ptr_t_, ptr %10, i32 0, i32 0
  %12 = load i32, ptr %11, align 8
  %13 = load ptr, ptr %3, align 8
  %14 = getelementptr inbounds %struct.Vec_Ptr_t_, ptr %13, i32 0, i32 0
  store i32 %12, ptr %14, align 8
  %15 = load ptr, ptr %3, align 8
  %16 = getelementptr inbounds %struct.Vec_Ptr_t_, ptr %15, i32 0, i32 0
  %17 = load i32, ptr %16, align 8
  %18 = icmp ne i32 %17, 0
  br i1 %18, label %19, label %26

19:                                               ; preds = %1
  %20 = load ptr, ptr %3, align 8
  %21 = getelementptr inbounds %struct.Vec_Ptr_t_, ptr %20, i32 0, i32 0
  %22 = load i32, ptr %21, align 8
  %23 = sext i32 %22 to i64
  %24 = mul i64 8, %23
  %25 = call noalias ptr @malloc(i64 noundef %24) #9
  br label %27

26:                                               ; preds = %1
  br label %27

27:                                               ; preds = %26, %19
  %28 = phi ptr [ %25, %19 ], [ null, %26 ]
  %29 = load ptr, ptr %3, align 8
  %30 = getelementptr inbounds %struct.Vec_Ptr_t_, ptr %29, i32 0, i32 2
  store ptr %28, ptr %30, align 8
  %31 = load ptr, ptr %3, align 8
  %32 = getelementptr inbounds %struct.Vec_Ptr_t_, ptr %31, i32 0, i32 2
  %33 = load ptr, ptr %32, align 8
  %34 = load ptr, ptr %2, align 8
  %35 = getelementptr inbounds %struct.Vec_Ptr_t_, ptr %34, i32 0, i32 2
  %36 = load ptr, ptr %35, align 8
  %37 = load ptr, ptr %2, align 8
  %38 = getelementptr inbounds %struct.Vec_Ptr_t_, ptr %37, i32 0, i32 1
  %39 = load i32, ptr %38, align 4
  %40 = sext i32 %39 to i64
  %41 = mul i64 8, %40
  call void @llvm.memcpy.p0.p0.i64(ptr align 8 %33, ptr align 8 %36, i64 %41, i1 false)
  %42 = load ptr, ptr %3, align 8
  ret ptr %42
}

; Function Attrs: nounwind uwtable
define ptr @Amap_LibSortGatesByArea(ptr noundef %0) #0 {
  %2 = alloca ptr, align 8
  %3 = alloca ptr, align 8
  store ptr %0, ptr %2, align 8
  %4 = load ptr, ptr %2, align 8
  %5 = getelementptr inbounds %struct.Amap_Lib_t_, ptr %4, i32 0, i32 1
  %6 = load ptr, ptr %5, align 8
  %7 = call ptr @Vec_PtrDup(ptr noundef %6)
  store ptr %7, ptr %3, align 8
  %8 = load ptr, ptr %3, align 8
  %9 = call ptr @Vec_PtrArray(ptr noundef %8)
  %10 = load ptr, ptr %3, align 8
  %11 = call i32 @Vec_PtrSize(ptr noundef %10)
  %12 = sext i32 %11 to i64
  call void @qsort(ptr noundef %9, i64 noundef %12, i64 noundef 8, ptr noundef @Amap_LibCompareGatesByArea)
  %13 = load ptr, ptr %3, align 8
  ret ptr %13
}