; Function Attrs: nofree nounwind uwtable
define noalias noundef ptr @Amap_LibSortGatesByArea(ptr noundef readonly captures(none) %0) local_unnamed_addr #5 {
  %2 = getelementptr inbounds nuw i8, ptr %0, i64 8
  %3 = load ptr, ptr %2, align 8
  %4 = tail call noalias dereferenceable_or_null(16) ptr @malloc(i64 noundef 16) #21
  %5 = getelementptr inbounds nuw i8, ptr %3, i64 4
  %6 = load i32, ptr %5, align 4
  %7 = getelementptr inbounds nuw i8, ptr %4, i64 4
  store i32 %6, ptr %7, align 4
  %8 = load i32, ptr %3, align 8
  store i32 %8, ptr %4, align 8
  %.not.i = icmp eq i32 %8, 0
  br i1 %.not.i, label %Vec_PtrDup.exit, label %9

9:                                                ; preds = %1
  %10 = sext i32 %8 to i64
  %11 = shl nsw i64 %10, 3
  %12 = tail call noalias ptr @malloc(i64 noundef %11) #21
  br label %Vec_PtrDup.exit

Vec_PtrDup.exit:                                  ; preds = %1, %9
  %13 = phi ptr [ %12, %9 ], [ null, %1 ]
  %14 = getelementptr inbounds nuw i8, ptr %4, i64 8
  store ptr %13, ptr %14, align 8
  %15 = getelementptr inbounds nuw i8, ptr %3, i64 8
  %16 = load ptr, ptr %15, align 8
  %17 = sext i32 %6 to i64
  %18 = shl nsw i64 %17, 3
  tail call void @llvm.memcpy.p0.p0.i64(ptr align 8 %13, ptr align 8 %16, i64 %18, i1 false)
  tail call void @qsort(ptr noundef %13, i64 noundef %17, i64 noundef 8, ptr noundef nonnull @Amap_LibCompareGatesByArea) #22
  ret ptr %4
}